target datalayout = "e-m:e-p270:32:32-p271:32:32-p272:64:64-i64:64-i128:128-f80:128-n8:16:32:64-S128"
target triple = "x86_64-pc-linux-gnu"

%struct.strbuf = type { i64, i64, ptr }
%struct.strvec = type { ptr, i64, i64 }
%struct.discovery = type { ptr, ptr, ptr, i64, ptr, %struct.oid_array, i32, i8 }
%struct.oid_array = type { ptr, i64, i64, i32 }
%struct.rpc_state = type { ptr, ptr, ptr, ptr, ptr, ptr, ptr, i64, i64, i64, i32, i32, i32, i8 }
%struct.child_process = type { %struct.strvec, %struct.strvec, i32, i32, i64, ptr, ptr, i32, i32, i32, ptr, i16, ptr }

@.str.1 = private unnamed_addr constant [14 x i8] c"remote-curl.c\00", align 1
@url = internal global %struct.strbuf { i64 0, i64 0, ptr @strbuf_slopbuf }, align 8
@.str.42 = private unnamed_addr constant [25 x i8] c"Git-Protocol: version=%d\00", align 1
@__const.rpc_service.buf = private unnamed_addr constant %struct.strbuf { i64 0, i64 0, ptr @strbuf_slopbuf }, align 8
@http_post_buffer = external global i64, align 8
@.str.75 = private unnamed_addr constant [5 x i8] c"%s%s\00", align 1
@.str.76 = private unnamed_addr constant [39 x i8] c"Content-Type: application/x-%s-request\00", align 1
@.str.77 = private unnamed_addr constant [32 x i8] c"Accept: application/x-%s-result\00", align 1

; Function Attrs: nounwind uwtable
define internal i32 @get_protocol_http_header(i32 noundef %0, ptr noundef %1) #0 {
  %3 = alloca i32, align 4
  %4 = alloca i32, align 4
  %5 = alloca ptr, align 8
  store i32 %0, ptr %4, align 4, !tbaa !4
  store ptr %1, ptr %5, align 8, !tbaa !35
  %6 = load i32, ptr %4, align 4, !tbaa !4
  %7 = icmp sgt i32 %6, 0
  br i1 %7, label %8, label %11

8:                                                ; preds = %2
  %9 = load ptr, ptr %5, align 8, !tbaa !35
  %10 = load i32, ptr %4, align 4, !tbaa !4
  call void (ptr, ptr, ...) @strbuf_addf(ptr noundef %9, ptr noundef @.str.42, i32 noundef %10)
  store i32 1, ptr %3, align 4
  br label %12

11:                                               ; preds = %2
  store i32 0, ptr %3, align 4
  br label %12

12:                                               ; preds = %11, %8
  %13 = load i32, ptr %3, align 4
  ret i32 %13
}

; Function Attrs: inlinehint nounwind uwtable
define internal ptr @xstrdup_or_null(ptr noundef %0) #4 {
  %2 = alloca ptr, align 8
  store ptr %0, ptr %2, align 8, !tbaa !18
  %3 = load ptr, ptr %2, align 8, !tbaa !18
  %4 = icmp ne ptr %3, null
  br i1 %4, label %5, label %8

5:                                                ; preds = %1
  %6 = load ptr, ptr %2, align 8, !tbaa !18
  %7 = call ptr @xstrdup(ptr noundef %6)
  br label %9

8:                                                ; preds = %1
  br label %9

9:                                                ; preds = %8, %5
  %10 = phi ptr [ %7, %5 ], [ null, %8 ]
  ret ptr %10
}

; Function Attrs: nounwind uwtable
define internal i32 @rpc_service(ptr noundef %0, ptr noundef %1, ptr noundef %2, ptr noundef %3, ptr noundef %4) #0 {
  %6 = alloca ptr, align 8
  %7 = alloca ptr, align 8
  %8 = alloca ptr, align 8
  %9 = alloca ptr, align 8
  %10 = alloca ptr, align 8
  %11 = alloca ptr, align 8
  %12 = alloca %struct.strbuf, align 8
  %13 = alloca %struct.child_process, align 8
  %14 = alloca i32, align 4
  %15 = alloca i32, align 4
  %16 = alloca i32, align 4
  %17 = alloca [4096 x i8], align 16
  store ptr %0, ptr %6, align 8, !tbaa !116
  store ptr %1, ptr %7, align 8, !tbaa !49
  store ptr %2, ptr %8, align 8, !tbaa !8
  store ptr %3, ptr %9, align 8, !tbaa !35
  store ptr %4, ptr %10, align 8, !tbaa !35
  call void @llvm.lifetime.start.p0(i64 8, ptr %11) #10
  %18 = load ptr, ptr %6, align 8, !tbaa !116
  %19 = getelementptr inbounds nuw %struct.rpc_state, ptr %18, i32 0, i32 0
  %20 = load ptr, ptr %19, align 8, !tbaa !63
  store ptr %20, ptr %11, align 8, !tbaa !18
  call void @llvm.lifetime.start.p0(i64 24, ptr %12) #10
  call void @llvm.memcpy.p0.p0.i64(ptr align 8 %12, ptr align 8 @__const.rpc_service.buf, i64 24, i1 false)
  call void @llvm.lifetime.start.p0(i64 120, ptr %13) #10
  call void @llvm.memcpy.p0.p0.i64(ptr align 8 %13, ptr align 8 @__const.rpc_service.client, i64 120, i1 false)
  call void @llvm.lifetime.start.p0(i64 4, ptr %14) #10
  store i32 0, ptr %14, align 4, !tbaa !4
  %21 = getelementptr inbounds nuw %struct.child_process, ptr %13, i32 0, i32 7
  store i32 -1, ptr %21, align 8, !tbaa !118
  %22 = getelementptr inbounds nuw %struct.child_process, ptr %13, i32 0, i32 8
  store i32 -1, ptr %22, align 4, !tbaa !120
  %23 = getelementptr inbounds nuw %struct.child_process, ptr %13, i32 0, i32 11
  %24 = load i16, ptr %23, align 8
  %25 = and i16 %24, -9
  %26 = or i16 %25, 8
  store i16 %26, ptr %23, align 8
  %27 = getelementptr inbounds nuw %struct.child_process, ptr %13, i32 0, i32 0
  %28 = load ptr, ptr %8, align 8, !tbaa !8
  call void @strvec_pushv(ptr noundef %27, ptr noundef %28)
  %29 = call i32 @start_command(ptr noundef %13)
  %30 = icmp ne i32 %29, 0
  br i1 %30, label %31, label %33

31:                                               ; preds = %5
  %32 = call i32 @common_exit(ptr noundef @.str.1, i32 noundef 1104, i32 noundef 1)
  call void @exit(i32 noundef %32) #13
  unreachable

33:                                               ; preds = %5
  %34 = getelementptr inbounds nuw %struct.child_process, ptr %13, i32 0, i32 7
  %35 = load i32, ptr %34, align 8, !tbaa !118
  %36 = load ptr, ptr %9, align 8, !tbaa !35
  %37 = getelementptr inbounds nuw %struct.strbuf, ptr %36, i32 0, i32 2
  %38 = load ptr, ptr %37, align 8, !tbaa !28
  %39 = load ptr, ptr %9, align 8, !tbaa !35
  %40 = getelementptr inbounds nuw %struct.strbuf, ptr %39, i32 0, i32 1
  %41 = load i64, ptr %40, align 8, !tbaa !32
  call void @write_or_die(i32 noundef %35, ptr noundef %38, i64 noundef %41)
  %42 = load ptr, ptr %7, align 8, !tbaa !49
  %43 = icmp ne ptr %42, null
  br i1 %43, label %44, label %53

44:                                               ; preds = %33
  %45 = getelementptr inbounds nuw %struct.child_process, ptr %13, i32 0, i32 7
  %46 = load i32, ptr %45, align 8, !tbaa !118
  %47 = load ptr, ptr %7, align 8, !tbaa !49
  %48 = getelementptr inbounds nuw %struct.discovery, ptr %47, i32 0, i32 2
  %49 = load ptr, ptr %48, align 8, !tbaa !75
  %50 = load ptr, ptr %7, align 8, !tbaa !49
  %51 = getelementptr inbounds nuw %struct.discovery, ptr %50, i32 0, i32 3
  %52 = load i64, ptr %51, align 8, !tbaa !76
  call void @write_or_die(i32 noundef %46, ptr noundef %49, i64 noundef %52)
  br label %53

53:                                               ; preds = %44, %33
  %54 = load i64, ptr @http_post_buffer, align 8, !tbaa !33
  %55 = load ptr, ptr %6, align 8, !tbaa !116
  %56 = getelementptr inbounds nuw %struct.rpc_state, ptr %55, i32 0, i32 7
  store i64 %54, ptr %56, align 8, !tbaa !69
  %57 = load ptr, ptr %6, align 8, !tbaa !116
  %58 = getelementptr inbounds nuw %struct.rpc_state, ptr %57, i32 0, i32 7
  %59 = load i64, ptr %58, align 8, !tbaa !69
  %60 = call ptr @xmalloc(i64 noundef %59)
  %61 = load ptr, ptr %6, align 8, !tbaa !116
  %62 = getelementptr inbounds nuw %struct.rpc_state, ptr %61, i32 0, i32 6
  store ptr %60, ptr %62, align 8, !tbaa !68
  %63 = getelementptr inbounds nuw %struct.child_process, ptr %13, i32 0, i32 7
  %64 = load i32, ptr %63, align 8, !tbaa !118
  %65 = load ptr, ptr %6, align 8, !tbaa !116
  %66 = getelementptr inbounds nuw %struct.rpc_state, ptr %65, i32 0, i32 10
  store i32 %64, ptr %66, align 8, !tbaa !72
  %67 = getelementptr inbounds nuw %struct.child_process, ptr %13, i32 0, i32 8
  %68 = load i32, ptr %67, align 4, !tbaa !120
  %69 = load ptr, ptr %6, align 8, !tbaa !116
  %70 = getelementptr inbounds nuw %struct.rpc_state, ptr %69, i32 0, i32 11
  store i32 %68, ptr %70, align 4, !tbaa !73
  %71 = load ptr, ptr getelementptr inbounds nuw (%struct.strbuf, ptr @url, i32 0, i32 2), align 8, !tbaa !28
  %72 = load ptr, ptr %11, align 8, !tbaa !18
  call void (ptr, ptr, ...) @strbuf_addf(ptr noundef %12, ptr noundef @.str.75, ptr noundef %71, ptr noundef %72)
  %73 = call ptr @strbuf_detach(ptr noundef %12, ptr noundef null)
  %74 = load ptr, ptr %6, align 8, !tbaa !116
  %75 = getelementptr inbounds nuw %struct.rpc_state, ptr %74, i32 0, i32 1
  store ptr %73, ptr %75, align 8, !tbaa !64
  %76 = call ptr @http_get_accept_language_header()
  %77 = call ptr @xstrdup_or_null(ptr noundef %76)
  %78 = load ptr, ptr %6, align 8, !tbaa !116
  %79 = getelementptr inbounds nuw %struct.rpc_state, ptr %78, i32 0, i32 4
  store ptr %77, ptr %79, align 8, !tbaa !61
  %80 = load ptr, ptr %11, align 8, !tbaa !18
  call void (ptr, ptr, ...) @strbuf_addf(ptr noundef %12, ptr noundef @.str.76, ptr noundef %80)
  %81 = call ptr @strbuf_detach(ptr noundef %12, ptr noundef null)
  %82 = load ptr, ptr %6, align 8, !tbaa !116
  %83 = getelementptr inbounds nuw %struct.rpc_state, ptr %82, i32 0, i32 2
  store ptr %81, ptr %83, align 8, !tbaa !65
  %84 = load ptr, ptr %11, align 8, !tbaa !18
  call void (ptr, ptr, ...) @strbuf_addf(ptr noundef %12, ptr noundef @.str.77, ptr noundef %84)
  %85 = call ptr @strbuf_detach(ptr noundef %12, ptr noundef null)
  %86 = load ptr, ptr %6, align 8, !tbaa !116
  %87 = getelementptr inbounds nuw %struct.rpc_state, ptr %86, i32 0, i32 3
  store ptr %85, ptr %87, align 8, !tbaa !66
  %88 = load ptr, ptr %7, align 8, !tbaa !49
  %89 = getelementptr inbounds nuw %struct.discovery, ptr %88, i32 0, i32 6
  %90 = load i32, ptr %89, align 8, !tbaa !60
  %91 = call i32 @get_protocol_http_header(i32 noundef %90, ptr noundef %12)
  %92 = icmp ne i32 %91, 0
  br i1 %92, label %93, label %97

93:                                               ; preds = %53
  %94 = call ptr @strbuf_detach(ptr noundef %12, ptr noundef null)
  %95 = load ptr, ptr %6, align 8, !tbaa !116
  %96 = getelementptr inbounds nuw %struct.rpc_state, ptr %95, i32 0, i32 5
  store ptr %94, ptr %96, align 8, !tbaa !67
  br label %100

97:                                               ; preds = %53
  %98 = load ptr, ptr %6, align 8, !tbaa !116
  %99 = getelementptr inbounds nuw %struct.rpc_state, ptr %98, i32 0, i32 5
  store ptr null, ptr %99, align 8, !tbaa !67
  br label %100

100:                                              ; preds = %97, %93
  br label %101

101:                                              ; preds = %133, %100
  %102 = load i32, ptr %14, align 4, !tbaa !4
  %103 = icmp ne i32 %102, 0
  %104 = xor i1 %103, true
  br i1 %104, label %105, label %134

105:                                              ; preds = %101
  call void @llvm.lifetime.start.p0(i64 4, ptr %15) #10
  %106 = load ptr, ptr %6, align 8, !tbaa !116
  %107 = getelementptr inbounds nuw %struct.rpc_state, ptr %106, i32 0, i32 11
  %108 = load i32, ptr %107, align 4, !tbaa !73
  %109 = load ptr, ptr %6, align 8, !tbaa !116
  %110 = getelementptr inbounds nuw %struct.rpc_state, ptr %109, i32 0, i32 6
  %111 = load ptr, ptr %110, align 8, !tbaa !68
  %112 = load ptr, ptr %6, align 8, !tbaa !116
  %113 = getelementptr inbounds nuw %struct.rpc_state, ptr %112, i32 0, i32 7
  %114 = load i64, ptr %113, align 8, !tbaa !69
  %115 = trunc i64 %114 to i32
  %116 = call i32 @packet_read(i32 noundef %108, ptr noundef %111, i32 noundef %115, i32 noundef 0)
  store i32 %116, ptr %15, align 4, !tbaa !4
  %117 = load i32, ptr %15, align 4, !tbaa !4
  %118 = icmp ne i32 %117, 0
  br i1 %118, label %120, label %119

119:                                              ; preds = %105
  store i32 3, ptr %16, align 4
  br label %131

120:                                              ; preds = %105
  %121 = load ptr, ptr %6, align 8, !tbaa !116
  %122 = getelementptr inbounds nuw %struct.rpc_state, ptr %121, i32 0, i32 9
  store i64 0, ptr %122, align 8, !tbaa !71
  %123 = load i32, ptr %15, align 4, !tbaa !4
  %124 = sext i32 %123 to i64
  %125 = load ptr, ptr %6, align 8, !tbaa !116
  %126 = getelementptr inbounds nuw %struct.rpc_state, ptr %125, i32 0, i32 8
  store i64 %124, ptr %126, align 8, !tbaa !70
  %127 = load ptr, ptr %6, align 8, !tbaa !116
  %128 = call i32 @post_rpc(ptr noundef %127, i32 noundef 0, i32 noundef 0)
  %129 = load i32, ptr %14, align 4, !tbaa !4
  %130 = or i32 %129, %128
  store i32 %130, ptr %14, align 4, !tbaa !4
  store i32 0, ptr %16, align 4
  br label %131

131:                                              ; preds = %120, %119
  call void @llvm.lifetime.end.p0(i64 4, ptr %15) #10
  %132 = load i32, ptr %16, align 4
  switch i32 %132, label %183 [
    i32 0, label %133
    i32 3, label %134
  ]

133:                                              ; preds = %131
  br label %101, !llvm.loop !121

134:                                              ; preds = %131, %101
  %135 = getelementptr inbounds nuw %struct.child_process, ptr %13, i32 0, i32 7
  %136 = load i32, ptr %135, align 8, !tbaa !118
  %137 = call i32 @close(i32 noundef %136)
  %138 = getelementptr inbounds nuw %struct.child_process, ptr %13, i32 0, i32 7
  store i32 -1, ptr %138, align 8, !tbaa !118
  %139 = load i32, ptr %14, align 4, !tbaa !4
  %140 = icmp ne i32 %139, 0
  br i1 %140, label %146, label %141

141:                                              ; preds = %134
  %142 = load ptr, ptr %10, align 8, !tbaa !35
  %143 = getelementptr inbounds nuw %struct.child_process, ptr %13, i32 0, i32 8
  %144 = load i32, ptr %143, align 4, !tbaa !120
  %145 = call i64 @strbuf_read(ptr noundef %142, i32 noundef %144, i64 noundef 0)
  br label %156

146:                                              ; preds = %134
  call void @llvm.lifetime.start.p0(i64 4096, ptr %17) #10
  br label %147

147:                                              ; preds = %154, %146
  %148 = getelementptr inbounds nuw %struct.child_process, ptr %13, i32 0, i32 8
  %149 = load i32, ptr %148, align 4, !tbaa !120
  %150 = getelementptr inbounds [4096 x i8], ptr %17, i64 0, i64 0
  %151 = call i64 @xread(i32 noundef %149, ptr noundef %150, i64 noundef 4096)
  %152 = icmp sle i64 %151, 0
  br i1 %152, label %153, label %154

153:                                              ; preds = %147
  br label %155

154:                                              ; preds = %147
  br label %147

155:                                              ; preds = %153
  call void @llvm.lifetime.end.p0(i64 4096, ptr %17) #10
  br label %156

156:                                              ; preds = %155, %141
  %157 = getelementptr inbounds nuw %struct.child_process, ptr %13, i32 0, i32 8
  %158 = load i32, ptr %157, align 4, !tbaa !120
  %159 = call i32 @close(i32 noundef %158)
  %160 = getelementptr inbounds nuw %struct.child_process, ptr %13, i32 0, i32 8
  store i32 -1, ptr %160, align 4, !tbaa !120
  %161 = call i32 @finish_command(ptr noundef %13)
  %162 = load i32, ptr %14, align 4, !tbaa !4
  %163 = or i32 %162, %161
  store i32 %163, ptr %14, align 4, !tbaa !4
  %164 = load ptr, ptr %6, align 8, !tbaa !116
  %165 = getelementptr inbounds nuw %struct.rpc_state, ptr %164, i32 0, i32 1
  %166 = load ptr, ptr %165, align 8, !tbaa !64
  call void @free(ptr noundef %166) #10
  %167 = load ptr, ptr %6, align 8, !tbaa !116
  %168 = getelementptr inbounds nuw %struct.rpc_state, ptr %167, i32 0, i32 2
  %169 = load ptr, ptr %168, align 8, !tbaa !65
  call void @free(ptr noundef %169) #10
  %170 = load ptr, ptr %6, align 8, !tbaa !116
  %171 = getelementptr inbounds nuw %struct.rpc_state, ptr %170, i32 0, i32 3
  %172 = load ptr, ptr %171, align 8, !tbaa !66
  call void @free(ptr noundef %172) #10
  %173 = load ptr, ptr %6, align 8, !tbaa !116
  %174 = getelementptr inbounds nuw %struct.rpc_state, ptr %173, i32 0, i32 4
  %175 = load ptr, ptr %174, align 8, !tbaa !61
  call void @free(ptr noundef %175) #10
  %176 = load ptr, ptr %6, align 8, !tbaa !116
  %177 = getelementptr inbounds nuw %struct.rpc_state, ptr %176, i32 0, i32 5
  %178 = load ptr, ptr %177, align 8, !tbaa !67
  call void @free(ptr noundef %178) #10
  %179 = load ptr, ptr %6, align 8, !tbaa !116
  %180 = getelementptr inbounds nuw %struct.rpc_state, ptr %179, i32 0, i32 6
  %181 = load ptr, ptr %180, align 8, !tbaa !68
  call void @free(ptr noundef %181) #10
  call void @strbuf_release(ptr noundef %12)
  %182 = load i32, ptr %14, align 4, !tbaa !4
  store i32 1, ptr %16, align 4
  call void @llvm.lifetime.end.p0(i64 4, ptr %14) #10
  call void @llvm.lifetime.end.p0(i64 120, ptr %13) #10
  call void @llvm.lifetime.end.p0(i64 24, ptr %12) #10
  call void @llvm.lifetime.end.p0(i64 8, ptr %11) #10
  ret i32 %182

183:                                              ; preds = %131
  unreachable
}