; Function Attrs: nounwind uwtable
define internal fastcc i32 @rpc_service(ptr noundef nonnull %0, ptr noundef readonly %1, ptr noundef %2, ptr noundef nonnull readonly captures(none) %3, ptr noundef nonnull %4) unnamed_addr #0 {
  %6 = alloca %struct.strbuf, align 8
  %7 = alloca %struct.child_process, align 8
  %8 = alloca [4096 x i8], align 16
  %9 = load ptr, ptr %0, align 8, !tbaa !48
  call void @llvm.lifetime.start.p0(i64 24, ptr nonnull %6) #17
  call void @llvm.memcpy.p0.p0.i64(ptr noundef nonnull align 8 dereferenceable(24) %6, ptr noundef nonnull align 8 dereferenceable(24) @__const.stateless_connect.buf, i64 24, i1 false)
  call void @llvm.lifetime.start.p0(i64 120, ptr nonnull %7) #17
  call void @llvm.memcpy.p0.p0.i64(ptr noundef nonnull align 8 dereferenceable(120) %7, ptr noundef nonnull align 8 dereferenceable(120) @__const.push_dav.child, i64 120, i1 false)
  %10 = getelementptr inbounds nuw i8, ptr %7, i64 80
  store i32 -1, ptr %10, align 8, !tbaa !114
  %11 = getelementptr inbounds nuw i8, ptr %7, i64 84
  store i32 -1, ptr %11, align 4, !tbaa !116
  %12 = getelementptr inbounds nuw i8, ptr %7, i64 104
  store i16 8, ptr %12, align 8
  call void @strvec_pushv(ptr noundef nonnull %7, ptr noundef %2) #17
  %13 = call i32 @start_command(ptr noundef nonnull %7) #17
  %.not = icmp eq i32 %13, 0
  br i1 %.not, label %16, label %14

14:                                               ; preds = %5
  %15 = call i32 @common_exit(ptr noundef nonnull @.str.1, i32 noundef 1104, i32 noundef 1) #17
  call void @exit(i32 noundef %15) #18
  unreachable

16:                                               ; preds = %5
  %17 = load i32, ptr %10, align 8, !tbaa !114
  %18 = getelementptr inbounds nuw i8, ptr %3, i64 16
  %19 = load ptr, ptr %18, align 8, !tbaa !27
  %20 = getelementptr inbounds nuw i8, ptr %3, i64 8
  %21 = load i64, ptr %20, align 8, !tbaa !31
  call void @write_or_die(i32 noundef %17, ptr noundef %19, i64 noundef %21) #17
  %.not45 = icmp eq ptr %1, null
  br i1 %.not45, label %28, label %22

22:                                               ; preds = %16
  %23 = load i32, ptr %10, align 8, !tbaa !114
  %24 = getelementptr inbounds nuw i8, ptr %1, i64 16
  %25 = load ptr, ptr %24, align 8, !tbaa !93
  %26 = getelementptr inbounds nuw i8, ptr %1, i64 24
  %27 = load i64, ptr %26, align 8, !tbaa !94
  call void @write_or_die(i32 noundef %23, ptr noundef %25, i64 noundef %27) #17
  br label %28

28:                                               ; preds = %22, %16
  %29 = load i64, ptr @http_post_buffer, align 8, !tbaa !81
  %30 = getelementptr inbounds nuw i8, ptr %0, i64 56
  store i64 %29, ptr %30, align 8, !tbaa !89
  %31 = call ptr @xmalloc(i64 noundef %29) #17
  %32 = getelementptr inbounds nuw i8, ptr %0, i64 48
  store ptr %31, ptr %32, align 8, !tbaa !88
  %33 = load i32, ptr %10, align 8, !tbaa !114
  %34 = getelementptr inbounds nuw i8, ptr %0, i64 80
  store i32 %33, ptr %34, align 8, !tbaa !90
  %35 = load i32, ptr %11, align 4, !tbaa !116
  %36 = getelementptr inbounds nuw i8, ptr %0, i64 84
  store i32 %35, ptr %36, align 4, !tbaa !91
  %37 = load ptr, ptr getelementptr inbounds nuw (i8, ptr @url, i64 16), align 8, !tbaa !27
  call void (ptr, ptr, ...) @strbuf_addf(ptr noundef nonnull %6, ptr noundef nonnull @.str.75, ptr noundef %37, ptr noundef %9) #17
  %38 = call ptr @strbuf_detach(ptr noundef nonnull %6, ptr noundef null) #17
  %39 = getelementptr inbounds nuw i8, ptr %0, i64 8
  store ptr %38, ptr %39, align 8, !tbaa !84
  %40 = call ptr @http_get_accept_language_header() #17
  %.not.i = icmp eq ptr %40, null
  br i1 %.not.i, label %xstrdup_or_null.exit, label %41

41:                                               ; preds = %28
  %42 = call ptr @xstrdup(ptr noundef nonnull %40) #17
  br label %xstrdup_or_null.exit

xstrdup_or_null.exit:                             ; preds = %28, %41
  %43 = phi ptr [ %42, %41 ], [ null, %28 ]
  %44 = getelementptr inbounds nuw i8, ptr %0, i64 32
  store ptr %43, ptr %44, align 8, !tbaa !83
  call void (ptr, ptr, ...) @strbuf_addf(ptr noundef nonnull %6, ptr noundef nonnull @.str.76, ptr noundef %9) #17
  %45 = call ptr @strbuf_detach(ptr noundef nonnull %6, ptr noundef null) #17
  %46 = getelementptr inbounds nuw i8, ptr %0, i64 16
  store ptr %45, ptr %46, align 8, !tbaa !85
  call void (ptr, ptr, ...) @strbuf_addf(ptr noundef nonnull %6, ptr noundef nonnull @.str.77, ptr noundef %9) #17
  %47 = call ptr @strbuf_detach(ptr noundef nonnull %6, ptr noundef null) #17
  %48 = getelementptr inbounds nuw i8, ptr %0, i64 24
  store ptr %47, ptr %48, align 8, !tbaa !86
  %49 = getelementptr inbounds nuw i8, ptr %1, i64 72
  %50 = load i32, ptr %49, align 8, !tbaa !82
  %51 = icmp sgt i32 %50, 0
  br i1 %51, label %52, label %54

52:                                               ; preds = %xstrdup_or_null.exit
  call void (ptr, ptr, ...) @strbuf_addf(ptr noundef nonnull %6, ptr noundef nonnull @.str.42, i32 noundef %50) #17
  %53 = call ptr @strbuf_detach(ptr noundef nonnull %6, ptr noundef null) #17
  br label %54

54:                                               ; preds = %xstrdup_or_null.exit, %52
  %.sink = phi ptr [ %53, %52 ], [ null, %xstrdup_or_null.exit ]
  %55 = getelementptr inbounds nuw i8, ptr %0, i64 40
  store ptr %.sink, ptr %55, align 8, !tbaa !87
  %56 = getelementptr inbounds nuw i8, ptr %0, i64 72
  %57 = getelementptr inbounds nuw i8, ptr %0, i64 64
  br label %58

58:                                               ; preds = %54, %64
  %59 = load i32, ptr %36, align 4, !tbaa !91
  %60 = load ptr, ptr %32, align 8, !tbaa !88
  %61 = load i64, ptr %30, align 8, !tbaa !89
  %62 = trunc i64 %61 to i32
  %63 = call i32 @packet_read(i32 noundef %59, ptr noundef %60, i32 noundef %62, i32 noundef 0) #17
  %.not48 = icmp eq i32 %63, 0
  br i1 %.not48, label %.thread, label %64

64:                                               ; preds = %58
  store i64 0, ptr %56, align 8, !tbaa !117
  %65 = sext i32 %63 to i64
  store i64 %65, ptr %57, align 8, !tbaa !95
  %66 = call fastcc i32 @post_rpc(ptr noundef %0, i32 noundef 0, i32 noundef 0)
  %.not47 = icmp eq i32 %66, 0
  br i1 %.not47, label %58, label %.thread

.thread:                                          ; preds = %58, %64
  %.042.lcssa = phi i32 [ 0, %58 ], [ -1, %64 ]
  %67 = load i32, ptr %10, align 8, !tbaa !114
  %68 = call i32 @close(i32 noundef %67) #17
  store i32 -1, ptr %10, align 8, !tbaa !114
  br i1 %.not48, label %69, label %72

69:                                               ; preds = %.thread
  %70 = load i32, ptr %11, align 4, !tbaa !116
  %71 = call i64 @strbuf_read(ptr noundef nonnull %4, i32 noundef %70, i64 noundef 0) #17
  br label %78

72:                                               ; preds = %.thread
  call void @llvm.lifetime.start.p0(i64 4096, ptr nonnull %8) #17
  br label %73

73:                                               ; preds = %73, %72
  %74 = load i32, ptr %11, align 4, !tbaa !116
  %75 = call i64 @xread(i32 noundef %74, ptr noundef nonnull %8, i64 noundef 4096) #17
  %76 = icmp slt i64 %75, 1
  br i1 %76, label %77, label %73

77:                                               ; preds = %73
  call void @llvm.lifetime.end.p0(i64 4096, ptr nonnull %8) #17
  br label %78

78:                                               ; preds = %77, %69
  %79 = load i32, ptr %11, align 4, !tbaa !116
  %80 = call i32 @close(i32 noundef %79) #17
  store i32 -1, ptr %11, align 4, !tbaa !116
  %81 = call i32 @finish_command(ptr noundef nonnull %7) #17
  %82 = or i32 %81, %.042.lcssa
  %83 = load ptr, ptr %39, align 8, !tbaa !84
  call void @free(ptr noundef %83) #17
  %84 = load ptr, ptr %46, align 8, !tbaa !85
  call void @free(ptr noundef %84) #17
  %85 = load ptr, ptr %48, align 8, !tbaa !86
  call void @free(ptr noundef %85) #17
  %86 = load ptr, ptr %44, align 8, !tbaa !83
  call void @free(ptr noundef %86) #17
  %87 = load ptr, ptr %55, align 8, !tbaa !87
  call void @free(ptr noundef %87) #17
  %88 = load ptr, ptr %32, align 8, !tbaa !88
  call void @free(ptr noundef %88) #17
  call void @strbuf_release(ptr noundef nonnull %6) #17
  call void @llvm.lifetime.end.p0(i64 120, ptr nonnull %7) #17
  call void @llvm.lifetime.end.p0(i64 24, ptr nonnull %6) #17
  ret i32 %82
}